; Function Attrs: mustprogress nounwind uwtable
define internal fastcc void @_ZN12_GLOBAL__N_127generateHierarchyFromRecordEPKN5clang10extractapi9APIRecordE(ptr dead_on_unwind noalias writable align 8 %0, ptr noundef %1) unnamed_addr #0 {
  %3 = alloca %"class.std::move_iterator", align 8
  %4 = alloca %"class.std::move_iterator", align 8
  %5 = alloca %"class.llvm::SmallVector", align 8
  %6 = alloca ptr, align 8
  %7 = getelementptr inbounds i8, ptr %5, i64 16
  call void @_ZN4llvm15SmallVectorBaseIjEC2EPvm(ptr noundef nonnull align 8 dereferenceable(16) %5, ptr noundef nonnull %7, i64 noundef 8) #16
  store ptr %1, ptr %6, align 8
  %.not4 = icmp eq ptr %1, null
  br i1 %.not4, label %._crit_edge, label %.lr.ph

.lr.ph:                                           ; preds = %2, %.lr.ph
  %8 = call noundef nonnull align 8 dereferenceable(56) ptr @_ZN4llvm15SmallVectorImplIN5clang10extractapi15SymbolReferenceEE12emplace_backIJRPKNS2_9APIRecordEEEERS3_DpOT_(ptr noundef nonnull align 8 dereferenceable(16) %5, ptr noundef nonnull align 8 dereferenceable(8) %6)
  %9 = load ptr, ptr %6, align 8
  %10 = getelementptr inbounds i8, ptr %9, i64 88
  %11 = load ptr, ptr %10, align 8
  store ptr %11, ptr %6, align 8
  %.not = icmp eq ptr %11, null
  br i1 %.not, label %._crit_edge, label %.lr.ph, !llvm.loop !76

._crit_edge:                                      ; preds = %.lr.ph, %2
  %12 = load ptr, ptr %5, align 8, !noalias !77
  %13 = call noundef i64 @_ZNK4llvm15SmallVectorBaseIjE4sizeEv(ptr noundef nonnull align 8 dereferenceable(16) %5) #16, !noalias !77
  %14 = getelementptr inbounds %"struct.clang::extractapi::SymbolReference", ptr %12, i64 %13
  %15 = load ptr, ptr %5, align 8, !noalias !80
  call void @llvm.lifetime.start.p0(i64 8, ptr nonnull %3)
  call void @llvm.lifetime.start.p0(i64 8, ptr nonnull %4)
  %16 = getelementptr inbounds i8, ptr %0, i64 16
  call void @_ZN4llvm15SmallVectorBaseIjEC2EPvm(ptr noundef nonnull align 8 dereferenceable(16) %0, ptr noundef nonnull %16, i64 noundef 8) #16
  store ptr %14, ptr %3, align 8
  store ptr %15, ptr %4, align 8
  call void @_ZN4llvm15SmallVectorImplIN5clang10extractapi15SymbolReferenceEE6appendISt13move_iteratorISt16reverse_iteratorIPS3_EEvEEvT_SB_(ptr noundef nonnull align 8 dereferenceable(16) %0, ptr noundef nonnull %3, ptr noundef nonnull %4)
  call void @llvm.lifetime.end.p0(i64 8, ptr nonnull %3)
  call void @llvm.lifetime.end.p0(i64 8, ptr nonnull %4)
  %17 = call noundef i64 @_ZNK4llvm15SmallVectorBaseIjE4sizeEv(ptr noundef nonnull align 8 dereferenceable(16) %5) #16
  %18 = load ptr, ptr %5, align 8
  %19 = icmp eq ptr %18, %7
  br i1 %19, label %_ZN4llvm11SmallVectorIN5clang10extractapi15SymbolReferenceELj8EED2Ev.exit, label %20

20:                                               ; preds = %._crit_edge
  call void @free(ptr noundef %18) #16
  br label %_ZN4llvm11SmallVectorIN5clang10extractapi15SymbolReferenceELj8EED2Ev.exit

_ZN4llvm11SmallVectorIN5clang10extractapi15SymbolReferenceELj8EED2Ev.exit: ; preds = %._crit_edge, %20
  ret void
}